; Function Attrs: mustprogress uwtable
define void @_ZN6icu_7713DecimalFormat24setPropertiesFromPatternERKNS_13UnicodeStringEiR10UErrorCode(ptr noundef nonnull readonly align 8 captures(none) dereferenceable(72) %0, ptr noundef nonnull align 8 dereferenceable(64) %1, i32 noundef %2, ptr noundef nonnull align 4 dereferenceable(4) %3) local_unnamed_addr #1 align 2 {
  %5 = load i32, ptr %3, align 4, !tbaa !13
  %6 = icmp sgt i32 %5, 0
  br i1 %6, label %11, label %7

7:                                                ; preds = %4
  %8 = getelementptr inbounds nuw i8, ptr %0, i64 64
  %9 = load ptr, ptr %8, align 8, !tbaa !25
  %10 = getelementptr inbounds nuw i8, ptr %9, i64 8
  tail call void @_ZN6icu_776number4impl13PatternParser25parseToExistingPropertiesERKNS_13UnicodeStringERNS1_23DecimalFormatPropertiesENS1_14IgnoreRoundingER10UErrorCode(ptr noundef nonnull align 8 dereferenceable(64) %1, ptr noundef nonnull align 8 dereferenceable(757) %10, i32 noundef %2, ptr noundef nonnull align 4 dereferenceable(4) %3)
  br label %11

11:                                               ; preds = %7, %4
  ret void
}